target datalayout = "e-m:e-p270:32:32-p271:32:32-p272:64:64-i64:64-i128:128-f80:128-n8:16:32:64-S128"
target triple = "x86_64-pc-linux-gnu"

%struct.pdf_struct = type { ptr, i32, i32, i32, i32, i32, ptr, i64, ptr, i64, i64, i64, ptr, ptr, i32, i32, ptr, i32, ptr, i32, %struct.pdf_stats, ptr, i32, i32 }
%struct.pdf_stats = type { i32, i32, i32, i32, i32, i32, i32, i32, i32, i32, i32, i32, i32, i32, i32, i32, i32, i32, i32, i32, i32, i32, i32, i32, i32, ptr, ptr, ptr, ptr, ptr, ptr, ptr, ptr }

@.str.138 = private unnamed_addr constant [17 x i8] c"/EncryptMetadata\00", align 1
@.str.223 = private unnamed_addr constant [9 x i8] c"/Encrypt\00", align 1
@.str.224 = private unnamed_addr constant [4 x i8] c"/ID\00", align 1
@.str.225 = private unnamed_addr constant [71 x i8] c"pdf_parse_encrypt: Found Encrypt dictionary but failed to parse objid\0A\00", align 1
@.str.226 = private unnamed_addr constant [62 x i8] c"pdf_parse_encrypt: Encountered invalid negative objid (%ld).\0A\00", align 1
@.str.227 = private unnamed_addr constant [71 x i8] c"pdf_parse_encrypt: Found Encrypt dictionary but failed to parse genid\0A\00", align 1
@.str.228 = private unnamed_addr constant [62 x i8] c"pdf_parse_encrypt: Encountered invalid negative genid (%ld).\0A\00", align 1
@.str.229 = private unnamed_addr constant [54 x i8] c"pdf_parse_encrypt: Encrypt dictionary in obj %lu %lu\0A\00", align 1

; Function Attrs: nounwind uwtable
define internal void @pdf_parse_encrypt(ptr noundef %0, ptr noundef %1, i32 noundef %2) #0 {
  %4 = alloca ptr, align 8
  %5 = alloca ptr, align 8
  %6 = alloca i32, align 4
  %7 = alloca ptr, align 8
  %8 = alloca ptr, align 8
  %9 = alloca i64, align 8
  %10 = alloca i64, align 8
  %11 = alloca i64, align 8
  store ptr %0, ptr %4, align 8
  store ptr %1, ptr %5, align 8
  store i32 %2, ptr %6, align 4
  %12 = load i32, ptr %6, align 4
  %13 = icmp sge i32 %12, 16
  br i1 %13, label %14, label %39

14:                                               ; preds = %3
  %15 = load ptr, ptr %5, align 8
  %16 = call i32 @strncmp(ptr noundef %15, ptr noundef @.str.138, i64 noundef 16) #13
  %17 = icmp ne i32 %16, 0
  br i1 %17, label %39, label %18

18:                                               ; preds = %14
  %19 = load ptr, ptr %5, align 8
  %20 = getelementptr inbounds i8, ptr %19, i64 16
  %21 = load i32, ptr %6, align 4
  %22 = sub nsw i32 %21, 16
  %23 = sext i32 %22 to i64
  %24 = call ptr @cli_memstr(ptr noundef %20, i64 noundef %23, ptr noundef @.str.223, i64 noundef 8)
  store ptr %24, ptr %7, align 8
  %25 = load ptr, ptr %7, align 8
  %26 = icmp ne ptr %25, null
  br i1 %26, label %28, label %27

27:                                               ; preds = %18
  br label %159

28:                                               ; preds = %18
  %29 = load ptr, ptr %7, align 8
  %30 = load ptr, ptr %5, align 8
  %31 = ptrtoint ptr %29 to i64
  %32 = ptrtoint ptr %30 to i64
  %33 = sub i64 %31, %32
  %34 = load i32, ptr %6, align 4
  %35 = sext i32 %34 to i64
  %36 = sub nsw i64 %35, %33
  %37 = trunc i64 %36 to i32
  store i32 %37, ptr %6, align 4
  %38 = load ptr, ptr %7, align 8
  store ptr %38, ptr %5, align 8
  br label %39

39:                                               ; preds = %28, %14, %3
  %40 = load ptr, ptr %5, align 8
  %41 = getelementptr inbounds i8, ptr %40, i64 8
  store ptr %41, ptr %7, align 8
  %42 = load i32, ptr %6, align 4
  %43 = sub nsw i32 %42, 8
  store i32 %43, ptr %6, align 4
  %44 = load ptr, ptr %7, align 8
  %45 = load i32, ptr %6, align 4
  %46 = sext i32 %45 to i64
  %47 = call ptr @pdf_nextobject(ptr noundef %44, i64 noundef %46)
  store ptr %47, ptr %8, align 8
  %48 = load ptr, ptr %8, align 8
  %49 = icmp ne ptr %48, null
  br i1 %49, label %50, label %62

50:                                               ; preds = %39
  %51 = call ptr @__ctype_b_loc() #10
  %52 = load ptr, ptr %51, align 8
  %53 = load ptr, ptr %8, align 8
  %54 = load i8, ptr %53, align 1
  %55 = sext i8 %54 to i32
  %56 = sext i32 %55 to i64
  %57 = getelementptr inbounds i16, ptr %52, i64 %56
  %58 = load i16, ptr %57, align 2
  %59 = zext i16 %58 to i32
  %60 = and i32 %59, 2048
  %61 = icmp ne i32 %60, 0
  br i1 %61, label %63, label %62

62:                                               ; preds = %50, %39
  br label %159

63:                                               ; preds = %50
  %64 = load ptr, ptr %8, align 8
  %65 = load ptr, ptr %7, align 8
  %66 = ptrtoint ptr %64 to i64
  %67 = ptrtoint ptr %65 to i64
  %68 = sub i64 %66, %67
  %69 = load i32, ptr %6, align 4
  %70 = sext i32 %69 to i64
  %71 = sub nsw i64 %70, %68
  %72 = trunc i64 %71 to i32
  store i32 %72, ptr %6, align 4
  %73 = load ptr, ptr %8, align 8
  store ptr %73, ptr %7, align 8
  %74 = load ptr, ptr %8, align 8
  %75 = load i32, ptr %6, align 4
  %76 = sext i32 %75 to i64
  %77 = call i32 @cli_strntol_wrap(ptr noundef %74, i64 noundef %76, i32 noundef 0, i32 noundef 10, ptr noundef %11)
  %78 = icmp ne i32 0, %77
  br i1 %78, label %79, label %80

79:                                               ; preds = %63
  call void (ptr, ...) @cli_dbgmsg(ptr noundef @.str.225)
  br label %159

80:                                               ; preds = %63
  %81 = load i64, ptr %11, align 8
  %82 = icmp slt i64 %81, 0
  br i1 %82, label %83, label %85

83:                                               ; preds = %80
  %84 = load i64, ptr %11, align 8
  call void (ptr, ...) @cli_dbgmsg(ptr noundef @.str.226, i64 noundef %84)
  br label %159

85:                                               ; preds = %80
  br label %86

86:                                               ; preds = %85
  %87 = load i64, ptr %11, align 8
  store i64 %87, ptr %9, align 8
  %88 = load i64, ptr %9, align 8
  %89 = shl i64 %88, 8
  store i64 %89, ptr %9, align 8
  %90 = load ptr, ptr %7, align 8
  %91 = load i32, ptr %6, align 4
  %92 = sext i32 %91 to i64
  %93 = call ptr @pdf_nextobject(ptr noundef %90, i64 noundef %92)
  store ptr %93, ptr %8, align 8
  %94 = load ptr, ptr %8, align 8
  %95 = icmp ne ptr %94, null
  br i1 %95, label %96, label %108

96:                                               ; preds = %86
  %97 = call ptr @__ctype_b_loc() #10
  %98 = load ptr, ptr %97, align 8
  %99 = load ptr, ptr %8, align 8
  %100 = load i8, ptr %99, align 1
  %101 = sext i8 %100 to i32
  %102 = sext i32 %101 to i64
  %103 = getelementptr inbounds i16, ptr %98, i64 %102
  %104 = load i16, ptr %103, align 2
  %105 = zext i16 %104 to i32
  %106 = and i32 %105, 2048
  %107 = icmp ne i32 %106, 0
  br i1 %107, label %109, label %108

108:                                              ; preds = %96, %86
  br label %159

109:                                              ; preds = %96
  %110 = load ptr, ptr %8, align 8
  %111 = load ptr, ptr %7, align 8
  %112 = ptrtoint ptr %110 to i64
  %113 = ptrtoint ptr %111 to i64
  %114 = sub i64 %112, %113
  %115 = load i32, ptr %6, align 4
  %116 = sext i32 %115 to i64
  %117 = sub nsw i64 %116, %114
  %118 = trunc i64 %117 to i32
  store i32 %118, ptr %6, align 4
  %119 = load ptr, ptr %8, align 8
  store ptr %119, ptr %7, align 8
  %120 = load ptr, ptr %8, align 8
  %121 = load i32, ptr %6, align 4
  %122 = sext i32 %121 to i64
  %123 = call i32 @cli_strntol_wrap(ptr noundef %120, i64 noundef %122, i32 noundef 0, i32 noundef 10, ptr noundef %11)
  %124 = icmp ne i32 0, %123
  br i1 %124, label %125, label %126

125:                                              ; preds = %109
  call void (ptr, ...) @cli_dbgmsg(ptr noundef @.str.227)
  br label %159

126:                                              ; preds = %109
  %127 = load i64, ptr %11, align 8
  %128 = icmp slt i64 %127, 0
  br i1 %128, label %129, label %131

129:                                              ; preds = %126
  %130 = load i64, ptr %11, align 8
  call void (ptr, ...) @cli_dbgmsg(ptr noundef @.str.228, i64 noundef %130)
  br label %159

131:                                              ; preds = %126
  br label %132

132:                                              ; preds = %131
  %133 = load i64, ptr %11, align 8
  store i64 %133, ptr %10, align 8
  %134 = load i64, ptr %10, align 8
  %135 = and i64 %134, 255
  %136 = load i64, ptr %9, align 8
  %137 = or i64 %136, %135
  store i64 %137, ptr %9, align 8
  %138 = load ptr, ptr %7, align 8
  %139 = load i32, ptr %6, align 4
  %140 = sext i32 %139 to i64
  %141 = call ptr @pdf_nextobject(ptr noundef %138, i64 noundef %140)
  store ptr %141, ptr %8, align 8
  %142 = load ptr, ptr %8, align 8
  %143 = icmp ne ptr %142, null
  br i1 %143, label %144, label %149

144:                                              ; preds = %132
  %145 = load ptr, ptr %8, align 8
  %146 = load i8, ptr %145, align 1
  %147 = sext i8 %146 to i32
  %148 = icmp ne i32 %147, 82
  br i1 %148, label %149, label %150

149:                                              ; preds = %144, %132
  br label %159

150:                                              ; preds = %144
  %151 = load i64, ptr %9, align 8
  %152 = lshr i64 %151, 8
  %153 = load i64, ptr %9, align 8
  %154 = and i64 %153, 255
  call void (ptr, ...) @cli_dbgmsg(ptr noundef @.str.229, i64 noundef %152, i64 noundef %154)
  %155 = load i64, ptr %9, align 8
  %156 = trunc i64 %155 to i32
  %157 = load ptr, ptr %4, align 8
  %158 = getelementptr inbounds %struct.pdf_struct, ptr %157, i32 0, i32 15
  store i32 %156, ptr %158, align 4
  br label %159

159:                                              ; preds = %150, %149, %129, %125, %108, %83, %79, %62, %27
  ret void
}

; Function Attrs: nounwind uwtable
define internal void @pdf_parse_trailer(ptr noundef %0, ptr noundef %1, i64 noundef %2) #0 {
  %4 = alloca ptr, align 8
  %5 = alloca ptr, align 8
  %6 = alloca i64, align 8
  %7 = alloca ptr, align 8
  %8 = alloca ptr, align 8
  %9 = alloca i32, align 4
  store ptr %0, ptr %4, align 8
  store ptr %1, ptr %5, align 8
  store i64 %2, ptr %6, align 8
  %10 = load ptr, ptr %5, align 8
  %11 = load i64, ptr %6, align 8
  %12 = call ptr @cli_memstr(ptr noundef %10, i64 noundef %11, ptr noundef @.str.223, i64 noundef 8)
  store ptr %12, ptr %7, align 8
  %13 = load ptr, ptr %7, align 8
  %14 = icmp ne ptr %13, null
  br i1 %14, label %15, label %47

15:                                               ; preds = %3
  store i32 0, ptr %9, align 4
  %16 = load ptr, ptr %4, align 8
  %17 = getelementptr inbounds %struct.pdf_struct, ptr %16, i32 0, i32 2
  %18 = load i32, ptr %17, align 4
  %19 = or i32 %18, 131072
  store i32 %19, ptr %17, align 4
  %20 = load ptr, ptr %4, align 8
  %21 = load ptr, ptr %7, align 8
  %22 = load ptr, ptr %5, align 8
  %23 = load i64, ptr %6, align 8
  %24 = getelementptr inbounds i8, ptr %22, i64 %23
  %25 = load ptr, ptr %7, align 8
  %26 = ptrtoint ptr %24 to i64
  %27 = ptrtoint ptr %25 to i64
  %28 = sub i64 %26, %27
  %29 = trunc i64 %28 to i32
  call void @pdf_parse_encrypt(ptr noundef %20, ptr noundef %21, i32 noundef %29)
  %30 = load ptr, ptr %5, align 8
  %31 = load i64, ptr %6, align 8
  %32 = trunc i64 %31 to i32
  %33 = call ptr @pdf_readstring(ptr noundef %30, i32 noundef %32, ptr noundef @.str.224, ptr noundef %9, ptr noundef null, i1 noundef zeroext false)
  store ptr %33, ptr %8, align 8
  %34 = load ptr, ptr %8, align 8
  %35 = icmp ne ptr %34, null
  br i1 %35, label %36, label %46

36:                                               ; preds = %15
  %37 = load ptr, ptr %4, align 8
  %38 = getelementptr inbounds %struct.pdf_struct, ptr %37, i32 0, i32 16
  %39 = load ptr, ptr %38, align 8
  call void @free(ptr noundef %39) #11
  %40 = load ptr, ptr %8, align 8
  %41 = load ptr, ptr %4, align 8
  %42 = getelementptr inbounds %struct.pdf_struct, ptr %41, i32 0, i32 16
  store ptr %40, ptr %42, align 8
  %43 = load i32, ptr %9, align 4
  %44 = load ptr, ptr %4, align 8
  %45 = getelementptr inbounds %struct.pdf_struct, ptr %44, i32 0, i32 17
  store i32 %43, ptr %45, align 8
  br label %46

46:                                               ; preds = %36, %15
  br label %47

47:                                               ; preds = %46, %3
  ret void
}