; Function Attrs: nounwind uwtable
define internal fastcc void @pdf_parse_trailer(ptr nocapture noundef %0, ptr noundef %1, i64 noundef %2) unnamed_addr #0 {
  %4 = alloca i64, align 8
  %5 = alloca i32, align 4
  %6 = tail call ptr @cli_memstr(ptr noundef %1, i64 noundef %2, ptr noundef nonnull @.str.223, i64 noundef 8) #22
  %.not = icmp eq ptr %6, null
  br i1 %.not, label %91, label %7

7:                                                ; preds = %3
  store i32 0, ptr %5, align 4
  %8 = getelementptr inbounds i8, ptr %0, i64 12
  %9 = load i32, ptr %8, align 4
  %10 = or i32 %9, 131072
  store i32 %10, ptr %8, align 4
  %11 = getelementptr inbounds i8, ptr %1, i64 %2
  %12 = ptrtoint ptr %11 to i64
  %13 = ptrtoint ptr %6 to i64
  %14 = sub i64 %12, %13
  %15 = trunc i64 %14 to i32
  call void @llvm.lifetime.start.p0(i64 8, ptr nonnull %4)
  %16 = icmp sgt i32 %15, 15
  br i1 %16, label %17, label %28

17:                                               ; preds = %7
  %18 = tail call i32 @strncmp(ptr noundef nonnull dereferenceable(1) %6, ptr noundef nonnull dereferenceable(17) @.str.138, i64 noundef 16) #26
  %.not.i = icmp eq i32 %18, 0
  br i1 %.not.i, label %19, label %28

19:                                               ; preds = %17
  %20 = getelementptr inbounds i8, ptr %6, i64 16
  %21 = add i64 %14, 4294967280
  %22 = and i64 %21, 4294967295
  %23 = tail call ptr @cli_memstr(ptr noundef nonnull %20, i64 noundef %22, ptr noundef nonnull @.str.223, i64 noundef 8) #22
  %.not51.i = icmp eq ptr %23, null
  br i1 %.not51.i, label %pdf_parse_encrypt.exit, label %24

24:                                               ; preds = %19
  %25 = ptrtoint ptr %23 to i64
  %.neg.i = sub i64 %13, %25
  %26 = trunc i64 %.neg.i to i32
  %27 = add i32 %26, %15
  br label %28

28:                                               ; preds = %24, %17, %7
  %.041.i = phi i32 [ %15, %17 ], [ %27, %24 ], [ %15, %7 ]
  %.0.i = phi ptr [ %6, %17 ], [ %23, %24 ], [ %6, %7 ]
  %29 = getelementptr inbounds i8, ptr %.0.i, i64 8
  %30 = add nsw i32 %.041.i, -8
  %31 = sext i32 %30 to i64
  %32 = tail call fastcc ptr @pdf_nextobject(ptr noundef nonnull %29, i64 noundef %31)
  %.not52.i = icmp eq ptr %32, null
  br i1 %.not52.i, label %pdf_parse_encrypt.exit, label %33

33:                                               ; preds = %28
  %34 = tail call ptr @__ctype_b_loc() #24
  %35 = load ptr, ptr %34, align 8
  %36 = load i8, ptr %32, align 1
  %37 = sext i8 %36 to i64
  %38 = getelementptr inbounds i16, ptr %35, i64 %37
  %39 = load i16, ptr %38, align 2
  %40 = and i16 %39, 2048
  %.not53.i = icmp eq i16 %40, 0
  br i1 %.not53.i, label %pdf_parse_encrypt.exit, label %41

41:                                               ; preds = %33
  %42 = ptrtoint ptr %32 to i64
  %43 = ptrtoint ptr %29 to i64
  %.neg54.i = sub i64 %43, %42
  %44 = trunc i64 %.neg54.i to i32
  %45 = add i32 %30, %44
  %46 = sext i32 %45 to i64
  %47 = call i32 @cli_strntol_wrap(ptr noundef nonnull %32, i64 noundef %46, i32 noundef 0, i32 noundef 10, ptr noundef nonnull %4) #22
  %.not55.i = icmp eq i32 %47, 0
  br i1 %.not55.i, label %49, label %48

48:                                               ; preds = %41
  call void (ptr, ...) @cli_dbgmsg(ptr noundef nonnull @.str.225) #22
  br label %pdf_parse_encrypt.exit

49:                                               ; preds = %41
  %50 = load i64, ptr %4, align 8
  %51 = icmp slt i64 %50, 0
  br i1 %51, label %52, label %53

52:                                               ; preds = %49
  call void (ptr, ...) @cli_dbgmsg(ptr noundef nonnull @.str.226, i64 noundef %50) #22
  br label %pdf_parse_encrypt.exit

53:                                               ; preds = %49
  %54 = shl i64 %50, 8
  %55 = call fastcc ptr @pdf_nextobject(ptr noundef nonnull %32, i64 noundef %46)
  %.not56.i = icmp eq ptr %55, null
  br i1 %.not56.i, label %pdf_parse_encrypt.exit, label %56

56:                                               ; preds = %53
  %57 = load ptr, ptr %34, align 8
  %58 = load i8, ptr %55, align 1
  %59 = sext i8 %58 to i64
  %60 = getelementptr inbounds i16, ptr %57, i64 %59
  %61 = load i16, ptr %60, align 2
  %62 = and i16 %61, 2048
  %.not57.i = icmp eq i16 %62, 0
  br i1 %.not57.i, label %pdf_parse_encrypt.exit, label %63

63:                                               ; preds = %56
  %64 = ptrtoint ptr %55 to i64
  %.neg58.i = sub i64 %42, %64
  %65 = trunc i64 %.neg58.i to i32
  %66 = add i32 %45, %65
  %67 = sext i32 %66 to i64
  %68 = call i32 @cli_strntol_wrap(ptr noundef nonnull %55, i64 noundef %67, i32 noundef 0, i32 noundef 10, ptr noundef nonnull %4) #22
  %.not59.i = icmp eq i32 %68, 0
  br i1 %.not59.i, label %70, label %69

69:                                               ; preds = %63
  call void (ptr, ...) @cli_dbgmsg(ptr noundef nonnull @.str.227) #22
  br label %pdf_parse_encrypt.exit

70:                                               ; preds = %63
  %71 = load i64, ptr %4, align 8
  %72 = icmp slt i64 %71, 0
  br i1 %72, label %73, label %74

73:                                               ; preds = %70
  call void (ptr, ...) @cli_dbgmsg(ptr noundef nonnull @.str.228, i64 noundef %71) #22
  br label %pdf_parse_encrypt.exit

74:                                               ; preds = %70
  %75 = and i64 %71, 255
  %76 = or disjoint i64 %75, %54
  %77 = call fastcc ptr @pdf_nextobject(ptr noundef nonnull %55, i64 noundef %67)
  %.not60.i = icmp eq ptr %77, null
  br i1 %.not60.i, label %pdf_parse_encrypt.exit, label %78

78:                                               ; preds = %74
  %79 = load i8, ptr %77, align 1
  %.not61.i = icmp eq i8 %79, 82
  br i1 %.not61.i, label %80, label %pdf_parse_encrypt.exit

80:                                               ; preds = %78
  %81 = and i64 %50, 72057594037927935
  call void (ptr, ...) @cli_dbgmsg(ptr noundef nonnull @.str.229, i64 noundef %81, i64 noundef %75) #22
  %82 = trunc i64 %76 to i32
  %83 = getelementptr inbounds i8, ptr %0, i64 100
  store i32 %82, ptr %83, align 4
  br label %pdf_parse_encrypt.exit

pdf_parse_encrypt.exit:                           ; preds = %19, %28, %33, %48, %52, %53, %56, %69, %73, %74, %78, %80
  call void @llvm.lifetime.end.p0(i64 8, ptr nonnull %4)
  %84 = trunc i64 %2 to i32
  %85 = call fastcc ptr @pdf_readstring(ptr noundef %1, i32 noundef %84, ptr noundef nonnull @.str.224, ptr noundef nonnull %5, ptr noundef null, i1 noundef zeroext false)
  %.not16 = icmp eq ptr %85, null
  br i1 %.not16, label %91, label %86

86:                                               ; preds = %pdf_parse_encrypt.exit
  %87 = getelementptr inbounds i8, ptr %0, i64 104
  %88 = load ptr, ptr %87, align 8
  call void @free(ptr noundef %88) #22
  store ptr %85, ptr %87, align 8
  %89 = load i32, ptr %5, align 4
  %90 = getelementptr inbounds i8, ptr %0, i64 112
  store i32 %89, ptr %90, align 8
  br label %91

91:                                               ; preds = %pdf_parse_encrypt.exit, %86, %3
  ret void
}